(lp1
(I3265
Vpedros
S'12/11 14:18'
tp2
a(I3094
Vpedros
S'09/11 10:00'
tp3
a(I2913
Vpedros
S'05/11 23:01'
tp4
a(I2878
S'pedros'
S'16/10 13:21'
tp5
a(I2464
Vsteph
S'05/11 23:20'
tp6
a(I1900
Vpedro
p7
S'30/08 15:07'
tp8
a(I1840
S'pedros'
S'03/11 13:19'
tp9
a(I1798
S'pedros'
S'03/11 14:26'
tp10
a(I1671
Vpedros
S'05/11 16:16'
tp11
a.